; Function Attrs: nounwind uwtable
define internal ptr @sys_profile_call_or_return(ptr noundef readonly captures(none) %0, ptr noundef readonly captures(none) %1, i64 %2, ptr readnone captures(none) %3) #0 {
  %5 = getelementptr i8, ptr %1, i64 16
  %6 = load ptr, ptr %5, align 8, !tbaa !111
  %7 = getelementptr i8, ptr %6, i64 8
  %.val31 = load ptr, ptr %7, align 8, !tbaa !112
  %.not.i34 = icmp eq ptr %.val31, @PyCFunction_Type
  br i1 %.not.i34, label %PyObject_TypeCheck.exit.thread, label %PyObject_TypeCheck.exit

PyObject_TypeCheck.exit:                          ; preds = %4
  %8 = tail call i32 @PyType_IsSubtype(ptr noundef %.val31, ptr noundef nonnull @PyCFunction_Type) #4
  %.not56 = icmp eq i32 %8, 0
  br i1 %.not56, label %35, label %PyObject_TypeCheck.exit.thread

PyObject_TypeCheck.exit.thread:                   ; preds = %4, %PyObject_TypeCheck.exit
  %9 = tail call align 8 ptr @llvm.threadlocal.address.p0(ptr align 8 @_Py_tss_tstate)
  %10 = load ptr, ptr %9, align 8, !tbaa !17
  %11 = getelementptr inbounds nuw i8, ptr %10, i64 80
  %12 = load ptr, ptr %11, align 8, !tbaa !103
  %13 = icmp eq ptr %12, null
  br i1 %13, label %call_profile_func.exit, label %14

14:                                               ; preds = %PyObject_TypeCheck.exit.thread
  %15 = tail call ptr @PyEval_GetFrame() #4
  %16 = icmp eq ptr %15, null
  br i1 %16, label %17, label %19

17:                                               ; preds = %14
  %18 = load ptr, ptr @PyExc_SystemError, align 8, !tbaa !111
  tail call void @PyErr_SetString(ptr noundef %18, ptr noundef nonnull @.str.3) #4
  br label %call_profile_func.exit

19:                                               ; preds = %14
  %20 = load i32, ptr %15, align 8, !tbaa !15
  %21 = icmp slt i32 %20, 0
  br i1 %21, label %Py_INCREF.exit.i, label %22

22:                                               ; preds = %19
  %23 = add nuw i32 %20, 1
  store i32 %23, ptr %15, align 8, !tbaa !15
  br label %Py_INCREF.exit.i

Py_INCREF.exit.i:                                 ; preds = %22, %19
  %24 = load ptr, ptr %11, align 8, !tbaa !103
  %25 = getelementptr inbounds nuw i8, ptr %10, i64 96
  %26 = load ptr, ptr %25, align 8, !tbaa !104
  %27 = getelementptr inbounds nuw i8, ptr %0, i64 24
  %28 = load i32, ptr %27, align 8, !tbaa !102
  %29 = tail call i32 %24(ptr noundef %26, ptr noundef nonnull %15, i32 noundef %28, ptr noundef nonnull %6) #4
  %30 = load i32, ptr %15, align 8, !tbaa !15
  %.not.i.i = icmp sgt i32 %30, -1
  br i1 %.not.i.i, label %31, label %Py_DECREF.exit.i

31:                                               ; preds = %Py_INCREF.exit.i
  %32 = add nsw i32 %30, -1
  store i32 %32, ptr %15, align 8, !tbaa !15
  %33 = icmp eq i32 %32, 0
  br i1 %33, label %34, label %Py_DECREF.exit.i

34:                                               ; preds = %31
  tail call void @_Py_Dealloc(ptr noundef nonnull %15) #4
  br label %Py_DECREF.exit.i

Py_DECREF.exit.i:                                 ; preds = %34, %31, %Py_INCREF.exit.i
  %.not.i35 = icmp eq i32 %29, 0
  %_Py_NoneStruct..i = select i1 %.not.i35, ptr @_Py_NoneStruct, ptr null
  br label %call_profile_func.exit

35:                                               ; preds = %PyObject_TypeCheck.exit
  %.val = load ptr, ptr %7, align 8, !tbaa !112
  %36 = icmp eq ptr %.val, @PyMethodDescr_Type
  br i1 %36, label %37, label %78

37:                                               ; preds = %35
  %38 = getelementptr i8, ptr %1, i64 24
  %39 = load ptr, ptr %38, align 8, !tbaa !111
  %40 = icmp eq ptr %39, @_PyInstrumentation_MISSING
  br i1 %40, label %call_profile_func.exit, label %41

41:                                               ; preds = %37
  %42 = load ptr, ptr getelementptr inbounds nuw (i8, ptr @PyMethodDescr_Type, i64 272), align 8, !tbaa !113
  %43 = getelementptr i8, ptr %39, i64 8
  %.val29 = load ptr, ptr %43, align 8, !tbaa !112
  %44 = tail call ptr %42(ptr noundef nonnull %6, ptr noundef %39, ptr noundef %.val29) #4
  %45 = icmp eq ptr %44, null
  br i1 %45, label %call_profile_func.exit, label %46

46:                                               ; preds = %41
  %47 = tail call align 8 ptr @llvm.threadlocal.address.p0(ptr align 8 @_Py_tss_tstate)
  %48 = load ptr, ptr %47, align 8, !tbaa !17
  %49 = getelementptr inbounds nuw i8, ptr %48, i64 80
  %50 = load ptr, ptr %49, align 8, !tbaa !103
  %51 = icmp eq ptr %50, null
  br i1 %51, label %call_profile_func.exit42, label %52

52:                                               ; preds = %46
  %53 = tail call ptr @PyEval_GetFrame() #4
  %54 = icmp eq ptr %53, null
  br i1 %54, label %55, label %57

55:                                               ; preds = %52
  %56 = load ptr, ptr @PyExc_SystemError, align 8, !tbaa !111
  tail call void @PyErr_SetString(ptr noundef %56, ptr noundef nonnull @.str.3) #4
  br label %call_profile_func.exit42

57:                                               ; preds = %52
  %58 = load i32, ptr %53, align 8, !tbaa !15
  %59 = icmp slt i32 %58, 0
  br i1 %59, label %Py_INCREF.exit.i36, label %60

60:                                               ; preds = %57
  %61 = add nuw i32 %58, 1
  store i32 %61, ptr %53, align 8, !tbaa !15
  br label %Py_INCREF.exit.i36

Py_INCREF.exit.i36:                               ; preds = %60, %57
  %62 = load ptr, ptr %49, align 8, !tbaa !103
  %63 = getelementptr inbounds nuw i8, ptr %48, i64 96
  %64 = load ptr, ptr %63, align 8, !tbaa !104
  %65 = getelementptr inbounds nuw i8, ptr %0, i64 24
  %66 = load i32, ptr %65, align 8, !tbaa !102
  %67 = tail call i32 %62(ptr noundef %64, ptr noundef nonnull %53, i32 noundef %66, ptr noundef nonnull %44) #4
  %68 = load i32, ptr %53, align 8, !tbaa !15
  %.not.i.i37 = icmp sgt i32 %68, -1
  br i1 %.not.i.i37, label %69, label %Py_DECREF.exit.i38

69:                                               ; preds = %Py_INCREF.exit.i36
  %70 = add nsw i32 %68, -1
  store i32 %70, ptr %53, align 8, !tbaa !15
  %71 = icmp eq i32 %70, 0
  br i1 %71, label %72, label %Py_DECREF.exit.i38

72:                                               ; preds = %69
  tail call void @_Py_Dealloc(ptr noundef nonnull %53) #4
  br label %Py_DECREF.exit.i38

Py_DECREF.exit.i38:                               ; preds = %72, %69, %Py_INCREF.exit.i36
  %.not.i39 = icmp eq i32 %67, 0
  %_Py_NoneStruct..i40 = select i1 %.not.i39, ptr @_Py_NoneStruct, ptr null
  br label %call_profile_func.exit42

call_profile_func.exit42:                         ; preds = %46, %55, %Py_DECREF.exit.i38
  %.0.i41 = phi ptr [ @_Py_NoneStruct, %46 ], [ null, %55 ], [ %_Py_NoneStruct..i40, %Py_DECREF.exit.i38 ]
  %73 = load i32, ptr %44, align 8, !tbaa !15
  %.not.i = icmp sgt i32 %73, -1
  br i1 %.not.i, label %74, label %call_profile_func.exit

74:                                               ; preds = %call_profile_func.exit42
  %75 = add nsw i32 %73, -1
  store i32 %75, ptr %44, align 8, !tbaa !15
  %76 = icmp eq i32 %75, 0
  br i1 %76, label %77, label %call_profile_func.exit

77:                                               ; preds = %74
  tail call void @_Py_Dealloc(ptr noundef nonnull %44) #4
  br label %call_profile_func.exit

78:                                               ; preds = %35
  %79 = icmp eq ptr %.val, @PyMethod_Type
  br i1 %79, label %80, label %call_profile_func.exit

80:                                               ; preds = %78
  %81 = getelementptr i8, ptr %6, i64 16
  %.val33 = load ptr, ptr %81, align 8, !tbaa !120
  %82 = icmp eq ptr %.val33, null
  br i1 %82, label %call_profile_func.exit, label %83

83:                                               ; preds = %80
  %84 = getelementptr i8, ptr %.val33, i64 8
  %.val32 = load ptr, ptr %84, align 8, !tbaa !112
  %.not.i43 = icmp eq ptr %.val32, @PyCFunction_Type
  br i1 %.not.i43, label %PyObject_TypeCheck.exit44.thread, label %PyObject_TypeCheck.exit44

PyObject_TypeCheck.exit44:                        ; preds = %83
  %85 = tail call i32 @PyType_IsSubtype(ptr noundef %.val32, ptr noundef nonnull @PyCFunction_Type) #4
  %.not = icmp eq i32 %85, 0
  br i1 %.not, label %call_profile_func.exit, label %PyObject_TypeCheck.exit44.thread

PyObject_TypeCheck.exit44.thread:                 ; preds = %83, %PyObject_TypeCheck.exit44
  %86 = tail call align 8 ptr @llvm.threadlocal.address.p0(ptr align 8 @_Py_tss_tstate)
  %87 = load ptr, ptr %86, align 8, !tbaa !17
  %88 = getelementptr inbounds nuw i8, ptr %87, i64 80
  %89 = load ptr, ptr %88, align 8, !tbaa !103
  %90 = icmp eq ptr %89, null
  br i1 %90, label %call_profile_func.exit, label %91

91:                                               ; preds = %PyObject_TypeCheck.exit44.thread
  %92 = tail call ptr @PyEval_GetFrame() #4
  %93 = icmp eq ptr %92, null
  br i1 %93, label %94, label %96

94:                                               ; preds = %91
  %95 = load ptr, ptr @PyExc_SystemError, align 8, !tbaa !111
  tail call void @PyErr_SetString(ptr noundef %95, ptr noundef nonnull @.str.3) #4
  br label %call_profile_func.exit

96:                                               ; preds = %91
  %97 = load i32, ptr %92, align 8, !tbaa !15
  %98 = icmp slt i32 %97, 0
  br i1 %98, label %Py_INCREF.exit.i45, label %99

99:                                               ; preds = %96
  %100 = add nuw i32 %97, 1
  store i32 %100, ptr %92, align 8, !tbaa !15
  br label %Py_INCREF.exit.i45

Py_INCREF.exit.i45:                               ; preds = %99, %96
  %101 = load ptr, ptr %88, align 8, !tbaa !103
  %102 = getelementptr inbounds nuw i8, ptr %87, i64 96
  %103 = load ptr, ptr %102, align 8, !tbaa !104
  %104 = getelementptr inbounds nuw i8, ptr %0, i64 24
  %105 = load i32, ptr %104, align 8, !tbaa !102
  %106 = tail call i32 %101(ptr noundef %103, ptr noundef nonnull %92, i32 noundef %105, ptr noundef nonnull %.val33) #4
  %107 = load i32, ptr %92, align 8, !tbaa !15
  %.not.i.i46 = icmp sgt i32 %107, -1
  br i1 %.not.i.i46, label %108, label %Py_DECREF.exit.i47

108:                                              ; preds = %Py_INCREF.exit.i45
  %109 = add nsw i32 %107, -1
  store i32 %109, ptr %92, align 8, !tbaa !15
  %110 = icmp eq i32 %109, 0
  br i1 %110, label %111, label %Py_DECREF.exit.i47

111:                                              ; preds = %108
  tail call void @_Py_Dealloc(ptr noundef nonnull %92) #4
  br label %Py_DECREF.exit.i47

Py_DECREF.exit.i47:                               ; preds = %111, %108, %Py_INCREF.exit.i45
  %.not.i48 = icmp eq i32 %106, 0
  %_Py_NoneStruct..i49 = select i1 %.not.i48, ptr @_Py_NoneStruct, ptr null
  br label %call_profile_func.exit

call_profile_func.exit:                           ; preds = %Py_DECREF.exit.i47, %94, %PyObject_TypeCheck.exit44.thread, %80, %78, %PyObject_TypeCheck.exit44, %77, %74, %call_profile_func.exit42, %Py_DECREF.exit.i, %17, %PyObject_TypeCheck.exit.thread, %37, %41
  %.0 = phi ptr [ @_Py_NoneStruct, %37 ], [ null, %41 ], [ @_Py_NoneStruct, %PyObject_TypeCheck.exit.thread ], [ null, %17 ], [ %_Py_NoneStruct..i, %Py_DECREF.exit.i ], [ %.0.i41, %call_profile_func.exit42 ], [ %.0.i41, %74 ], [ %.0.i41, %77 ], [ @_Py_NoneStruct, %PyObject_TypeCheck.exit44 ], [ @_Py_NoneStruct, %78 ], [ %_Py_NoneStruct..i49, %Py_DECREF.exit.i47 ], [ null, %94 ], [ @_Py_NoneStruct, %PyObject_TypeCheck.exit44.thread ], [ null, %80 ]
  ret ptr %.0
}